; Function Attrs: nounwind uwtable
define range(i32 -1, 1) i32 @ark_MRIStepInnerFullRhs(ptr noundef %0, double noundef %1, ptr noundef %2, ptr noundef %3, i32 noundef %4) #0 {
  %6 = alloca ptr, align 8
  call void @llvm.lifetime.start.p0(i64 8, ptr nonnull %6) #16
  %7 = call i32 @MRIStepInnerStepper_GetContent(ptr noundef %0, ptr noundef nonnull %6) #16
  %.not = icmp eq i32 %7, 0
  br i1 %.not, label %8, label %17

8:                                                ; preds = %5
  %9 = load ptr, ptr %6, align 8, !tbaa !157
  %10 = icmp eq ptr %9, null
  br i1 %10, label %11, label %12

11:                                               ; preds = %8
  call void (ptr, i32, i32, ptr, ptr, ptr, ...) @arkProcessError(ptr noundef null, i32 noundef -21, i32 noundef 3805, ptr noundef nonnull @__func__.ark_MRIStepInnerFullRhs, ptr noundef nonnull @.str, ptr noundef nonnull @.str.1)
  br label %17

12:                                               ; preds = %8
  %13 = getelementptr inbounds nuw i8, ptr %9, i64 152
  %14 = load ptr, ptr %13, align 8, !tbaa !140
  %15 = call i32 %14(ptr noundef nonnull %9, double noundef %1, ptr noundef %2, ptr noundef %3, i32 noundef %4) #16
  %16 = icmp ne i32 %15, 0
  %. = sext i1 %16 to i32
  br label %17

17:                                               ; preds = %12, %5, %11
  %.0 = phi i32 [ -1, %11 ], [ -1, %5 ], [ %., %12 ]
  call void @llvm.lifetime.end.p0(i64 8, ptr nonnull %6) #16
  ret i32 %.0
}